; ModuleID = 'bench/c3c/original/vmem.c.ll'
source_filename = "bench/c3c/original/vmem.c.ll"
target datalayout = "e-m:e-p270:32:32-p271:32:32-p272:64:64-i64:64-i128:128-f80:128-n8:16:32:64-S128"
target triple = "x86_64-pc-linux-gnu"

@.str = private unnamed_addr constant [36 x i8] c"FATAL ERROR %s -> in %s @ in %s:%d \00", align 1
@.str.1 = private unnamed_addr constant [35 x i8] c"Failed to map virtual memory block\00", align 1
@__func__.mmap_init = private unnamed_addr constant [10 x i8] c"mmap_init\00", align 1
@.str.2 = private unnamed_addr constant [102 x i8] c"generated/home/dtcxzyw/WorkSpace/Projects/compilers/llvm-opt-benchmark/bench/c3c/c3c/src/utils/vmem.c\00", align 1

; Function Attrs: nounwind uwtable
define dso_local void @vmem_init(ptr nocapture noundef writeonly %0, i64 noundef %1) local_unnamed_addr #0 {
  %3 = shl i64 %1, 20
  %4 = getelementptr inbounds i8, ptr %0, i64 16
  store i64 %3, ptr %4, align 8
  %5 = tail call ptr @mmap(ptr noundef null, i64 noundef %3, i32 noundef 3, i32 noundef 34, i32 noundef -1, i64 noundef 0) #5
  %magicptr.i = ptrtoint ptr %5 to i64
  switch i64 %magicptr.i, label %mmap_init.exit [
    i64 -1, label %6
    i64 0, label %6
  ]

6:                                                ; preds = %2, %2
  tail call void (ptr, ...) @error_exit(ptr noundef nonnull @.str, ptr noundef nonnull @.str.1, ptr noundef nonnull @__func__.mmap_init, ptr noundef nonnull @.str.2, i32 noundef 32) #6
  unreachable

mmap_init.exit:                                   ; preds = %2
  store ptr %5, ptr %0, align 8
  %7 = getelementptr inbounds i8, ptr %0, i64 8
  store i64 0, ptr %7, align 8
  ret void
}

; Function Attrs: mustprogress nofree norecurse nosync nounwind willreturn memory(argmem: readwrite) uwtable
define dso_local ptr @vmem_alloc(ptr nocapture noundef %0, i64 noundef %1) local_unnamed_addr #1 {
  %3 = getelementptr inbounds i8, ptr %0, i64 8
  %4 = load i64, ptr %3, align 8
  %5 = add i64 %4, %1
  %6 = load ptr, ptr %0, align 8
  %7 = getelementptr inbounds i8, ptr %6, i64 %4
  store i64 %5, ptr %3, align 8
  ret ptr %7
}

; Function Attrs: nounwind uwtable
define dso_local void @vmem_free(ptr nocapture noundef %0) local_unnamed_addr #0 {
  %2 = load ptr, ptr %0, align 8
  %.not = icmp eq ptr %2, null
  br i1 %.not, label %7, label %3

3:                                                ; preds = %1
  %4 = getelementptr inbounds i8, ptr %0, i64 16
  %5 = load i64, ptr %4, align 8
  %6 = tail call i32 @munmap(ptr noundef nonnull %2, i64 noundef %5) #5
  tail call void @llvm.memset.p0.i64(ptr noundef nonnull align 8 dereferenceable(24) %0, i8 0, i64 24, i1 false)
  br label %7

7:                                                ; preds = %1, %3
  ret void
}

; Function Attrs: nounwind
declare i32 @munmap(ptr noundef, i64 noundef) local_unnamed_addr #2

; Function Attrs: nounwind
declare ptr @mmap(ptr noundef, i64 noundef, i32 noundef, i32 noundef, i32 noundef, i64 noundef) local_unnamed_addr #2

; Function Attrs: noreturn
declare void @error_exit(ptr noundef, ...) local_unnamed_addr #3

; Function Attrs: nocallback nofree nounwind willreturn memory(argmem: write)
declare void @llvm.memset.p0.i64(ptr nocapture writeonly, i8, i64, i1 immarg) #4


!llvm.module.flags = !{!0, !1, !2, !3, !4, !5, !6}

!0 = !{i32 7, !"Dwarf Version", i32 3}
!1 = !{i32 2, !"Debug Info Version", i32 3}
!2 = !{i32 1, !"wchar_size", i32 4}
!3 = !{i32 8, !"PIC Level", i32 2}
!4 = !{i32 7, !"PIE Level", i32 2}
!5 = !{i32 7, !"uwtable", i32 2}
!6 = !{i32 7, !"frame-pointer", i32 2}
